ARM GAS  C:\Users\15892\AppData\Local\Temp\ccw6juYI.s 			page 1


   1              		.cpu cortex-m3
   2              		.arch armv7-m
   3              		.fpu softvfp
   4              		.eabi_attribute 20, 1
   5              		.eabi_attribute 21, 1
   6              		.eabi_attribute 23, 3
   7              		.eabi_attribute 24, 1
   8              		.eabi_attribute 25, 1
   9              		.eabi_attribute 26, 1
  10              		.eabi_attribute 30, 1
  11              		.eabi_attribute 34, 1
  12              		.eabi_attribute 18, 4
  13              		.file	"tim.c"
  14              		.text
  15              	.Ltext0:
  16              		.cfi_sections	.debug_frame
  17              		.section	.text.MX_TIM6_Init,"ax",%progbits
  18              		.align	1
  19              		.global	MX_TIM6_Init
  20              		.syntax unified
  21              		.thumb
  22              		.thumb_func
  24              	MX_TIM6_Init:
  25              	.LFB65:
  26              		.file 1 "Core/Src/tim.c"
   1:Core/Src/tim.c **** /* USER CODE BEGIN Header */
   2:Core/Src/tim.c **** /**
   3:Core/Src/tim.c ****   ******************************************************************************
   4:Core/Src/tim.c ****   * @file    tim.c
   5:Core/Src/tim.c ****   * @brief   This file provides code for the configuration
   6:Core/Src/tim.c ****   *          of the TIM instances.
   7:Core/Src/tim.c ****   ******************************************************************************
   8:Core/Src/tim.c ****   * @attention
   9:Core/Src/tim.c ****   *
  10:Core/Src/tim.c ****   * Copyright (c) 2025 STMicroelectronics.
  11:Core/Src/tim.c ****   * All rights reserved.
  12:Core/Src/tim.c ****   *
  13:Core/Src/tim.c ****   * This software is licensed under terms that can be found in the LICENSE file
  14:Core/Src/tim.c ****   * in the root directory of this software component.
  15:Core/Src/tim.c ****   * If no LICENSE file comes with this software, it is provided AS-IS.
  16:Core/Src/tim.c ****   *
  17:Core/Src/tim.c ****   ******************************************************************************
  18:Core/Src/tim.c ****   */
  19:Core/Src/tim.c **** /* USER CODE END Header */
  20:Core/Src/tim.c **** /* Includes ------------------------------------------------------------------*/
  21:Core/Src/tim.c **** #include "tim.h"
  22:Core/Src/tim.c **** 
  23:Core/Src/tim.c **** /* USER CODE BEGIN 0 */
  24:Core/Src/tim.c **** 
  25:Core/Src/tim.c **** /* USER CODE END 0 */
  26:Core/Src/tim.c **** 
  27:Core/Src/tim.c **** TIM_HandleTypeDef htim6;
  28:Core/Src/tim.c **** 
  29:Core/Src/tim.c **** /* TIM6 init function */
  30:Core/Src/tim.c **** void MX_TIM6_Init(void)
  31:Core/Src/tim.c **** {
  27              		.loc 1 31 1 view -0
ARM GAS  C:\Users\15892\AppData\Local\Temp\ccw6juYI.s 			page 2


  28              		.cfi_startproc
  29              		@ args = 0, pretend = 0, frame = 8
  30              		@ frame_needed = 0, uses_anonymous_args = 0
  31 0000 00B5     		push	{lr}
  32              	.LCFI0:
  33              		.cfi_def_cfa_offset 4
  34              		.cfi_offset 14, -4
  35 0002 83B0     		sub	sp, sp, #12
  36              	.LCFI1:
  37              		.cfi_def_cfa_offset 16
  32:Core/Src/tim.c **** 
  33:Core/Src/tim.c ****   /* USER CODE BEGIN TIM6_Init 0 */
  34:Core/Src/tim.c **** 
  35:Core/Src/tim.c ****   /* USER CODE END TIM6_Init 0 */
  36:Core/Src/tim.c **** 
  37:Core/Src/tim.c ****   TIM_MasterConfigTypeDef sMasterConfig = {0};
  38              		.loc 1 37 3 view .LVU1
  39              		.loc 1 37 27 is_stmt 0 view .LVU2
  40 0004 0023     		movs	r3, #0
  41 0006 0093     		str	r3, [sp]
  42 0008 0193     		str	r3, [sp, #4]
  38:Core/Src/tim.c **** 
  39:Core/Src/tim.c ****   /* USER CODE BEGIN TIM6_Init 1 */
  40:Core/Src/tim.c **** 
  41:Core/Src/tim.c ****   /* USER CODE END TIM6_Init 1 */
  42:Core/Src/tim.c ****   htim6.Instance = TIM6;
  43              		.loc 1 42 3 is_stmt 1 view .LVU3
  44              		.loc 1 42 18 is_stmt 0 view .LVU4
  45 000a 0F48     		ldr	r0, .L7
  46 000c 0F4A     		ldr	r2, .L7+4
  47 000e 0260     		str	r2, [r0]
  43:Core/Src/tim.c ****   htim6.Init.Prescaler = 7199;
  48              		.loc 1 43 3 is_stmt 1 view .LVU5
  49              		.loc 1 43 24 is_stmt 0 view .LVU6
  50 0010 41F61F42 		movw	r2, #7199
  51 0014 4260     		str	r2, [r0, #4]
  44:Core/Src/tim.c ****   htim6.Init.CounterMode = TIM_COUNTERMODE_UP;
  52              		.loc 1 44 3 is_stmt 1 view .LVU7
  53              		.loc 1 44 26 is_stmt 0 view .LVU8
  54 0016 8360     		str	r3, [r0, #8]
  45:Core/Src/tim.c ****   htim6.Init.Period = 4999;
  55              		.loc 1 45 3 is_stmt 1 view .LVU9
  56              		.loc 1 45 21 is_stmt 0 view .LVU10
  57 0018 41F28732 		movw	r2, #4999
  58 001c C260     		str	r2, [r0, #12]
  46:Core/Src/tim.c ****   htim6.Init.AutoReloadPreload = TIM_AUTORELOAD_PRELOAD_DISABLE;
  59              		.loc 1 46 3 is_stmt 1 view .LVU11
  60              		.loc 1 46 32 is_stmt 0 view .LVU12
  61 001e 8361     		str	r3, [r0, #24]
  47:Core/Src/tim.c ****   if (HAL_TIM_Base_Init(&htim6) != HAL_OK)
  62              		.loc 1 47 3 is_stmt 1 view .LVU13
  63              		.loc 1 47 7 is_stmt 0 view .LVU14
  64 0020 FFF7FEFF 		bl	HAL_TIM_Base_Init
  65              	.LVL0:
  66              		.loc 1 47 6 view .LVU15
  67 0024 50B9     		cbnz	r0, .L5
  68              	.L2:
ARM GAS  C:\Users\15892\AppData\Local\Temp\ccw6juYI.s 			page 3


  48:Core/Src/tim.c ****   {
  49:Core/Src/tim.c ****     Error_Handler();
  50:Core/Src/tim.c ****   }
  51:Core/Src/tim.c ****   sMasterConfig.MasterOutputTrigger = TIM_TRGO_RESET;
  69              		.loc 1 51 3 is_stmt 1 view .LVU16
  70              		.loc 1 51 37 is_stmt 0 view .LVU17
  71 0026 0023     		movs	r3, #0
  72 0028 0093     		str	r3, [sp]
  52:Core/Src/tim.c ****   sMasterConfig.MasterSlaveMode = TIM_MASTERSLAVEMODE_DISABLE;
  73              		.loc 1 52 3 is_stmt 1 view .LVU18
  74              		.loc 1 52 33 is_stmt 0 view .LVU19
  75 002a 0193     		str	r3, [sp, #4]
  53:Core/Src/tim.c ****   if (HAL_TIMEx_MasterConfigSynchronization(&htim6, &sMasterConfig) != HAL_OK)
  76              		.loc 1 53 3 is_stmt 1 view .LVU20
  77              		.loc 1 53 7 is_stmt 0 view .LVU21
  78 002c 6946     		mov	r1, sp
  79 002e 0648     		ldr	r0, .L7
  80 0030 FFF7FEFF 		bl	HAL_TIMEx_MasterConfigSynchronization
  81              	.LVL1:
  82              		.loc 1 53 6 view .LVU22
  83 0034 28B9     		cbnz	r0, .L6
  84              	.L1:
  54:Core/Src/tim.c ****   {
  55:Core/Src/tim.c ****     Error_Handler();
  56:Core/Src/tim.c ****   }
  57:Core/Src/tim.c ****   /* USER CODE BEGIN TIM6_Init 2 */
  58:Core/Src/tim.c **** 
  59:Core/Src/tim.c ****   /* USER CODE END TIM6_Init 2 */
  60:Core/Src/tim.c **** 
  61:Core/Src/tim.c **** }
  85              		.loc 1 61 1 view .LVU23
  86 0036 03B0     		add	sp, sp, #12
  87              	.LCFI2:
  88              		.cfi_remember_state
  89              		.cfi_def_cfa_offset 4
  90              		@ sp needed
  91 0038 5DF804FB 		ldr	pc, [sp], #4
  92              	.L5:
  93              	.LCFI3:
  94              		.cfi_restore_state
  49:Core/Src/tim.c ****   }
  95              		.loc 1 49 5 is_stmt 1 view .LVU24
  96 003c FFF7FEFF 		bl	Error_Handler
  97              	.LVL2:
  98 0040 F1E7     		b	.L2
  99              	.L6:
  55:Core/Src/tim.c ****   }
 100              		.loc 1 55 5 view .LVU25
 101 0042 FFF7FEFF 		bl	Error_Handler
 102              	.LVL3:
 103              		.loc 1 61 1 is_stmt 0 view .LVU26
 104 0046 F6E7     		b	.L1
 105              	.L8:
 106              		.align	2
 107              	.L7:
 108 0048 00000000 		.word	.LANCHOR0
 109 004c 00100040 		.word	1073745920
ARM GAS  C:\Users\15892\AppData\Local\Temp\ccw6juYI.s 			page 4


 110              		.cfi_endproc
 111              	.LFE65:
 113              		.section	.text.HAL_TIM_Base_MspInit,"ax",%progbits
 114              		.align	1
 115              		.global	HAL_TIM_Base_MspInit
 116              		.syntax unified
 117              		.thumb
 118              		.thumb_func
 120              	HAL_TIM_Base_MspInit:
 121              	.LVL4:
 122              	.LFB66:
  62:Core/Src/tim.c **** 
  63:Core/Src/tim.c **** void HAL_TIM_Base_MspInit(TIM_HandleTypeDef* tim_baseHandle)
  64:Core/Src/tim.c **** {
 123              		.loc 1 64 1 is_stmt 1 view -0
 124              		.cfi_startproc
 125              		@ args = 0, pretend = 0, frame = 8
 126              		@ frame_needed = 0, uses_anonymous_args = 0
  65:Core/Src/tim.c **** 
  66:Core/Src/tim.c ****   if(tim_baseHandle->Instance==TIM6)
 127              		.loc 1 66 3 view .LVU28
 128              		.loc 1 66 20 is_stmt 0 view .LVU29
 129 0000 0268     		ldr	r2, [r0]
 130              		.loc 1 66 5 view .LVU30
 131 0002 0E4B     		ldr	r3, .L16
 132 0004 9A42     		cmp	r2, r3
 133 0006 00D0     		beq	.L15
 134 0008 7047     		bx	lr
 135              	.L15:
  64:Core/Src/tim.c **** 
 136              		.loc 1 64 1 view .LVU31
 137 000a 00B5     		push	{lr}
 138              	.LCFI4:
 139              		.cfi_def_cfa_offset 4
 140              		.cfi_offset 14, -4
 141 000c 83B0     		sub	sp, sp, #12
 142              	.LCFI5:
 143              		.cfi_def_cfa_offset 16
  67:Core/Src/tim.c ****   {
  68:Core/Src/tim.c ****   /* USER CODE BEGIN TIM6_MspInit 0 */
  69:Core/Src/tim.c **** 
  70:Core/Src/tim.c ****   /* USER CODE END TIM6_MspInit 0 */
  71:Core/Src/tim.c ****     /* TIM6 clock enable */
  72:Core/Src/tim.c ****     __HAL_RCC_TIM6_CLK_ENABLE();
 144              		.loc 1 72 5 is_stmt 1 view .LVU32
 145              	.LBB2:
 146              		.loc 1 72 5 view .LVU33
 147              		.loc 1 72 5 view .LVU34
 148 000e 03F50033 		add	r3, r3, #131072
 149 0012 DA69     		ldr	r2, [r3, #28]
 150 0014 42F01002 		orr	r2, r2, #16
 151 0018 DA61     		str	r2, [r3, #28]
 152              		.loc 1 72 5 view .LVU35
 153 001a DB69     		ldr	r3, [r3, #28]
 154 001c 03F01003 		and	r3, r3, #16
 155 0020 0193     		str	r3, [sp, #4]
 156              		.loc 1 72 5 view .LVU36
ARM GAS  C:\Users\15892\AppData\Local\Temp\ccw6juYI.s 			page 5


 157 0022 019B     		ldr	r3, [sp, #4]
 158              	.LBE2:
 159              		.loc 1 72 5 view .LVU37
  73:Core/Src/tim.c **** 
  74:Core/Src/tim.c ****     /* TIM6 interrupt Init */
  75:Core/Src/tim.c ****     HAL_NVIC_SetPriority(TIM6_IRQn, 1, 0);
 160              		.loc 1 75 5 view .LVU38
 161 0024 0022     		movs	r2, #0
 162 0026 0121     		movs	r1, #1
 163 0028 3620     		movs	r0, #54
 164              	.LVL5:
 165              		.loc 1 75 5 is_stmt 0 view .LVU39
 166 002a FFF7FEFF 		bl	HAL_NVIC_SetPriority
 167              	.LVL6:
  76:Core/Src/tim.c ****     HAL_NVIC_EnableIRQ(TIM6_IRQn);
 168              		.loc 1 76 5 is_stmt 1 view .LVU40
 169 002e 3620     		movs	r0, #54
 170 0030 FFF7FEFF 		bl	HAL_NVIC_EnableIRQ
 171              	.LVL7:
  77:Core/Src/tim.c ****   /* USER CODE BEGIN TIM6_MspInit 1 */
  78:Core/Src/tim.c **** 
  79:Core/Src/tim.c ****   /* USER CODE END TIM6_MspInit 1 */
  80:Core/Src/tim.c ****   }
  81:Core/Src/tim.c **** }
 172              		.loc 1 81 1 is_stmt 0 view .LVU41
 173 0034 03B0     		add	sp, sp, #12
 174              	.LCFI6:
 175              		.cfi_def_cfa_offset 4
 176              		@ sp needed
 177 0036 5DF804FB 		ldr	pc, [sp], #4
 178              	.L17:
 179 003a 00BF     		.align	2
 180              	.L16:
 181 003c 00100040 		.word	1073745920
 182              		.cfi_endproc
 183              	.LFE66:
 185              		.section	.text.HAL_TIM_Base_MspDeInit,"ax",%progbits
 186              		.align	1
 187              		.global	HAL_TIM_Base_MspDeInit
 188              		.syntax unified
 189              		.thumb
 190              		.thumb_func
 192              	HAL_TIM_Base_MspDeInit:
 193              	.LVL8:
 194              	.LFB67:
  82:Core/Src/tim.c **** 
  83:Core/Src/tim.c **** void HAL_TIM_Base_MspDeInit(TIM_HandleTypeDef* tim_baseHandle)
  84:Core/Src/tim.c **** {
 195              		.loc 1 84 1 is_stmt 1 view -0
 196              		.cfi_startproc
 197              		@ args = 0, pretend = 0, frame = 0
 198              		@ frame_needed = 0, uses_anonymous_args = 0
 199              		.loc 1 84 1 is_stmt 0 view .LVU43
 200 0000 08B5     		push	{r3, lr}
 201              	.LCFI7:
 202              		.cfi_def_cfa_offset 8
 203              		.cfi_offset 3, -8
ARM GAS  C:\Users\15892\AppData\Local\Temp\ccw6juYI.s 			page 6


 204              		.cfi_offset 14, -4
  85:Core/Src/tim.c **** 
  86:Core/Src/tim.c ****   if(tim_baseHandle->Instance==TIM6)
 205              		.loc 1 86 3 is_stmt 1 view .LVU44
 206              		.loc 1 86 20 is_stmt 0 view .LVU45
 207 0002 0268     		ldr	r2, [r0]
 208              		.loc 1 86 5 view .LVU46
 209 0004 064B     		ldr	r3, .L22
 210 0006 9A42     		cmp	r2, r3
 211 0008 00D0     		beq	.L21
 212              	.LVL9:
 213              	.L18:
  87:Core/Src/tim.c ****   {
  88:Core/Src/tim.c ****   /* USER CODE BEGIN TIM6_MspDeInit 0 */
  89:Core/Src/tim.c **** 
  90:Core/Src/tim.c ****   /* USER CODE END TIM6_MspDeInit 0 */
  91:Core/Src/tim.c ****     /* Peripheral clock disable */
  92:Core/Src/tim.c ****     __HAL_RCC_TIM6_CLK_DISABLE();
  93:Core/Src/tim.c **** 
  94:Core/Src/tim.c ****     /* TIM6 interrupt Deinit */
  95:Core/Src/tim.c ****     HAL_NVIC_DisableIRQ(TIM6_IRQn);
  96:Core/Src/tim.c ****   /* USER CODE BEGIN TIM6_MspDeInit 1 */
  97:Core/Src/tim.c **** 
  98:Core/Src/tim.c ****   /* USER CODE END TIM6_MspDeInit 1 */
  99:Core/Src/tim.c ****   }
 100:Core/Src/tim.c **** }
 214              		.loc 1 100 1 view .LVU47
 215 000a 08BD     		pop	{r3, pc}
 216              	.LVL10:
 217              	.L21:
  92:Core/Src/tim.c **** 
 218              		.loc 1 92 5 is_stmt 1 view .LVU48
 219 000c 054A     		ldr	r2, .L22+4
 220 000e D369     		ldr	r3, [r2, #28]
 221 0010 23F01003 		bic	r3, r3, #16
 222 0014 D361     		str	r3, [r2, #28]
  95:Core/Src/tim.c ****   /* USER CODE BEGIN TIM6_MspDeInit 1 */
 223              		.loc 1 95 5 view .LVU49
 224 0016 3620     		movs	r0, #54
 225              	.LVL11:
  95:Core/Src/tim.c ****   /* USER CODE BEGIN TIM6_MspDeInit 1 */
 226              		.loc 1 95 5 is_stmt 0 view .LVU50
 227 0018 FFF7FEFF 		bl	HAL_NVIC_DisableIRQ
 228              	.LVL12:
 229              		.loc 1 100 1 view .LVU51
 230 001c F5E7     		b	.L18
 231              	.L23:
 232 001e 00BF     		.align	2
 233              	.L22:
 234 0020 00100040 		.word	1073745920
 235 0024 00100240 		.word	1073876992
 236              		.cfi_endproc
 237              	.LFE67:
 239              		.section	.text.HAL_TIM_PeriodElapsedCallback,"ax",%progbits
 240              		.align	1
 241              		.global	HAL_TIM_PeriodElapsedCallback
 242              		.syntax unified
ARM GAS  C:\Users\15892\AppData\Local\Temp\ccw6juYI.s 			page 7


 243              		.thumb
 244              		.thumb_func
 246              	HAL_TIM_PeriodElapsedCallback:
 247              	.LVL13:
 248              	.LFB68:
 101:Core/Src/tim.c **** 
 102:Core/Src/tim.c **** /* USER CODE BEGIN 1 */
 103:Core/Src/tim.c **** void HAL_TIM_PeriodElapsedCallback(TIM_HandleTypeDef *htim)
 104:Core/Src/tim.c **** {
 249              		.loc 1 104 1 is_stmt 1 view -0
 250              		.cfi_startproc
 251              		@ args = 0, pretend = 0, frame = 0
 252              		@ frame_needed = 0, uses_anonymous_args = 0
 253              		.loc 1 104 1 is_stmt 0 view .LVU53
 254 0000 08B5     		push	{r3, lr}
 255              	.LCFI8:
 256              		.cfi_def_cfa_offset 8
 257              		.cfi_offset 3, -8
 258              		.cfi_offset 14, -4
 105:Core/Src/tim.c ****   if (htim->Instance == TIM6)
 259              		.loc 1 105 3 is_stmt 1 view .LVU54
 260              		.loc 1 105 11 is_stmt 0 view .LVU55
 261 0002 0268     		ldr	r2, [r0]
 262              		.loc 1 105 6 view .LVU56
 263 0004 044B     		ldr	r3, .L28
 264 0006 9A42     		cmp	r2, r3
 265 0008 00D0     		beq	.L27
 266              	.LVL14:
 267              	.L24:
 106:Core/Src/tim.c ****   {
 107:Core/Src/tim.c ****     HAL_GPIO_TogglePin(LED1_GPIO_Port, LED1_Pin);
 108:Core/Src/tim.c ****   }
 109:Core/Src/tim.c **** }
 268              		.loc 1 109 1 view .LVU57
 269 000a 08BD     		pop	{r3, pc}
 270              	.LVL15:
 271              	.L27:
 107:Core/Src/tim.c ****   }
 272              		.loc 1 107 5 is_stmt 1 view .LVU58
 273 000c 2021     		movs	r1, #32
 274 000e 0348     		ldr	r0, .L28+4
 275              	.LVL16:
 107:Core/Src/tim.c ****   }
 276              		.loc 1 107 5 is_stmt 0 view .LVU59
 277 0010 FFF7FEFF 		bl	HAL_GPIO_TogglePin
 278              	.LVL17:
 279              		.loc 1 109 1 view .LVU60
 280 0014 F9E7     		b	.L24
 281              	.L29:
 282 0016 00BF     		.align	2
 283              	.L28:
 284 0018 00100040 		.word	1073745920
 285 001c 00180140 		.word	1073813504
 286              		.cfi_endproc
 287              	.LFE68:
 289              		.global	htim6
 290              		.section	.bss.htim6,"aw",%nobits
ARM GAS  C:\Users\15892\AppData\Local\Temp\ccw6juYI.s 			page 8


 291              		.align	2
 292              		.set	.LANCHOR0,. + 0
 295              	htim6:
 296 0000 00000000 		.space	72
 296      00000000 
 296      00000000 
 296      00000000 
 296      00000000 
 297              		.text
 298              	.Letext0:
 299              		.file 2 "c:\\env\\tools\\gnu_gcc\\arm_gcc\\mingw\\arm-none-eabi\\include\\machine\\_default_types.
 300              		.file 3 "c:\\env\\tools\\gnu_gcc\\arm_gcc\\mingw\\arm-none-eabi\\include\\sys\\_stdint.h"
 301              		.file 4 "Drivers/CMSIS/Device/ST/STM32F1xx/Include/stm32f103xe.h"
 302              		.file 5 "Drivers/STM32F1xx_HAL_Driver/Inc/stm32f1xx_hal_def.h"
 303              		.file 6 "Drivers/STM32F1xx_HAL_Driver/Inc/stm32f1xx_hal_dma.h"
 304              		.file 7 "Drivers/STM32F1xx_HAL_Driver/Inc/stm32f1xx_hal_tim.h"
 305              		.file 8 "Drivers/STM32F1xx_HAL_Driver/Inc/stm32f1xx_hal_gpio.h"
 306              		.file 9 "Drivers/STM32F1xx_HAL_Driver/Inc/stm32f1xx_hal_cortex.h"
 307              		.file 10 "Drivers/STM32F1xx_HAL_Driver/Inc/stm32f1xx_hal_tim_ex.h"
 308              		.file 11 "Core/Inc/main.h"
 309              		.file 12 "Core/Inc/tim.h"
ARM GAS  C:\Users\15892\AppData\Local\Temp\ccw6juYI.s 			page 9

