ARM GAS  C:\Users\15892\AppData\Local\Temp\cc2DzT23.s 			page 1


   1              		.cpu cortex-m3
   2              		.arch armv7-m
   3              		.fpu softvfp
   4              		.eabi_attribute 20, 1
   5              		.eabi_attribute 21, 1
   6              		.eabi_attribute 23, 3
   7              		.eabi_attribute 24, 1
   8              		.eabi_attribute 25, 1
   9              		.eabi_attribute 26, 1
  10              		.eabi_attribute 30, 1
  11              		.eabi_attribute 34, 1
  12              		.eabi_attribute 18, 4
  13              		.file	"tim.c"
  14              		.text
  15              	.Ltext0:
  16              		.cfi_sections	.debug_frame
  17              		.section	.text.HAL_TIM_Base_MspInit,"ax",%progbits
  18              		.align	1
  19              		.global	HAL_TIM_Base_MspInit
  20              		.syntax unified
  21              		.thumb
  22              		.thumb_func
  24              	HAL_TIM_Base_MspInit:
  25              	.LVL0:
  26              	.LFB66:
  27              		.file 1 "Core/Src/tim.c"
   1:Core/Src/tim.c **** /* USER CODE BEGIN Header */
   2:Core/Src/tim.c **** /**
   3:Core/Src/tim.c ****   ******************************************************************************
   4:Core/Src/tim.c ****   * @file    tim.c
   5:Core/Src/tim.c ****   * @brief   This file provides code for the configuration
   6:Core/Src/tim.c ****   *          of the TIM instances.
   7:Core/Src/tim.c ****   ******************************************************************************
   8:Core/Src/tim.c ****   * @attention
   9:Core/Src/tim.c ****   *
  10:Core/Src/tim.c ****   * Copyright (c) 2025 STMicroelectronics.
  11:Core/Src/tim.c ****   * All rights reserved.
  12:Core/Src/tim.c ****   *
  13:Core/Src/tim.c ****   * This software is licensed under terms that can be found in the LICENSE file
  14:Core/Src/tim.c ****   * in the root directory of this software component.
  15:Core/Src/tim.c ****   * If no LICENSE file comes with this software, it is provided AS-IS.
  16:Core/Src/tim.c ****   *
  17:Core/Src/tim.c ****   ******************************************************************************
  18:Core/Src/tim.c ****   */
  19:Core/Src/tim.c **** /* USER CODE END Header */
  20:Core/Src/tim.c **** /* Includes ------------------------------------------------------------------*/
  21:Core/Src/tim.c **** #include "tim.h"
  22:Core/Src/tim.c **** 
  23:Core/Src/tim.c **** /* USER CODE BEGIN 0 */
  24:Core/Src/tim.c **** 
  25:Core/Src/tim.c **** /* USER CODE END 0 */
  26:Core/Src/tim.c **** 
  27:Core/Src/tim.c **** TIM_HandleTypeDef htim3;
  28:Core/Src/tim.c **** 
  29:Core/Src/tim.c **** /* TIM3 init function */
  30:Core/Src/tim.c **** void MX_TIM3_Init(void)
  31:Core/Src/tim.c **** {
ARM GAS  C:\Users\15892\AppData\Local\Temp\cc2DzT23.s 			page 2


  32:Core/Src/tim.c **** 
  33:Core/Src/tim.c ****   /* USER CODE BEGIN TIM3_Init 0 */
  34:Core/Src/tim.c **** 
  35:Core/Src/tim.c ****   /* USER CODE END TIM3_Init 0 */
  36:Core/Src/tim.c **** 
  37:Core/Src/tim.c ****   TIM_ClockConfigTypeDef sClockSourceConfig = {0};
  38:Core/Src/tim.c ****   TIM_MasterConfigTypeDef sMasterConfig = {0};
  39:Core/Src/tim.c ****   TIM_OC_InitTypeDef sConfigOC = {0};
  40:Core/Src/tim.c **** 
  41:Core/Src/tim.c ****   /* USER CODE BEGIN TIM3_Init 1 */
  42:Core/Src/tim.c **** 
  43:Core/Src/tim.c ****   /* USER CODE END TIM3_Init 1 */
  44:Core/Src/tim.c ****   htim3.Instance = TIM3;
  45:Core/Src/tim.c ****   htim3.Init.Prescaler = 71;
  46:Core/Src/tim.c ****   htim3.Init.CounterMode = TIM_COUNTERMODE_UP;
  47:Core/Src/tim.c ****   htim3.Init.Period = 499;
  48:Core/Src/tim.c ****   htim3.Init.ClockDivision = TIM_CLOCKDIVISION_DIV1;
  49:Core/Src/tim.c ****   htim3.Init.AutoReloadPreload = TIM_AUTORELOAD_PRELOAD_ENABLE;
  50:Core/Src/tim.c ****   if (HAL_TIM_Base_Init(&htim3) != HAL_OK)
  51:Core/Src/tim.c ****   {
  52:Core/Src/tim.c ****     Error_Handler();
  53:Core/Src/tim.c ****   }
  54:Core/Src/tim.c ****   sClockSourceConfig.ClockSource = TIM_CLOCKSOURCE_INTERNAL;
  55:Core/Src/tim.c ****   if (HAL_TIM_ConfigClockSource(&htim3, &sClockSourceConfig) != HAL_OK)
  56:Core/Src/tim.c ****   {
  57:Core/Src/tim.c ****     Error_Handler();
  58:Core/Src/tim.c ****   }
  59:Core/Src/tim.c ****   if (HAL_TIM_PWM_Init(&htim3) != HAL_OK)
  60:Core/Src/tim.c ****   {
  61:Core/Src/tim.c ****     Error_Handler();
  62:Core/Src/tim.c ****   }
  63:Core/Src/tim.c ****   sMasterConfig.MasterOutputTrigger = TIM_TRGO_RESET;
  64:Core/Src/tim.c ****   sMasterConfig.MasterSlaveMode = TIM_MASTERSLAVEMODE_DISABLE;
  65:Core/Src/tim.c ****   if (HAL_TIMEx_MasterConfigSynchronization(&htim3, &sMasterConfig) != HAL_OK)
  66:Core/Src/tim.c ****   {
  67:Core/Src/tim.c ****     Error_Handler();
  68:Core/Src/tim.c ****   }
  69:Core/Src/tim.c ****   sConfigOC.OCMode = TIM_OCMODE_PWM1;
  70:Core/Src/tim.c ****   sConfigOC.Pulse = 249;
  71:Core/Src/tim.c ****   sConfigOC.OCPolarity = TIM_OCPOLARITY_HIGH;
  72:Core/Src/tim.c ****   sConfigOC.OCFastMode = TIM_OCFAST_DISABLE;
  73:Core/Src/tim.c ****   if (HAL_TIM_PWM_ConfigChannel(&htim3, &sConfigOC, TIM_CHANNEL_2) != HAL_OK)
  74:Core/Src/tim.c ****   {
  75:Core/Src/tim.c ****     Error_Handler();
  76:Core/Src/tim.c ****   }
  77:Core/Src/tim.c ****   /* USER CODE BEGIN TIM3_Init 2 */
  78:Core/Src/tim.c **** 
  79:Core/Src/tim.c ****   /* USER CODE END TIM3_Init 2 */
  80:Core/Src/tim.c ****   HAL_TIM_MspPostInit(&htim3);
  81:Core/Src/tim.c **** 
  82:Core/Src/tim.c **** }
  83:Core/Src/tim.c **** 
  84:Core/Src/tim.c **** void HAL_TIM_Base_MspInit(TIM_HandleTypeDef* tim_baseHandle)
  85:Core/Src/tim.c **** {
  28              		.loc 1 85 1 view -0
  29              		.cfi_startproc
  30              		@ args = 0, pretend = 0, frame = 8
ARM GAS  C:\Users\15892\AppData\Local\Temp\cc2DzT23.s 			page 3


  31              		@ frame_needed = 0, uses_anonymous_args = 0
  86:Core/Src/tim.c **** 
  87:Core/Src/tim.c ****   if(tim_baseHandle->Instance==TIM3)
  32              		.loc 1 87 3 view .LVU1
  33              		.loc 1 87 20 is_stmt 0 view .LVU2
  34 0000 0268     		ldr	r2, [r0]
  35              		.loc 1 87 5 view .LVU3
  36 0002 0E4B     		ldr	r3, .L8
  37 0004 9A42     		cmp	r2, r3
  38 0006 00D0     		beq	.L7
  39 0008 7047     		bx	lr
  40              	.L7:
  85:Core/Src/tim.c **** 
  41              		.loc 1 85 1 view .LVU4
  42 000a 00B5     		push	{lr}
  43              	.LCFI0:
  44              		.cfi_def_cfa_offset 4
  45              		.cfi_offset 14, -4
  46 000c 83B0     		sub	sp, sp, #12
  47              	.LCFI1:
  48              		.cfi_def_cfa_offset 16
  88:Core/Src/tim.c ****   {
  89:Core/Src/tim.c ****   /* USER CODE BEGIN TIM3_MspInit 0 */
  90:Core/Src/tim.c **** 
  91:Core/Src/tim.c ****   /* USER CODE END TIM3_MspInit 0 */
  92:Core/Src/tim.c ****     /* TIM3 clock enable */
  93:Core/Src/tim.c ****     __HAL_RCC_TIM3_CLK_ENABLE();
  49              		.loc 1 93 5 is_stmt 1 view .LVU5
  50              	.LBB2:
  51              		.loc 1 93 5 view .LVU6
  52              		.loc 1 93 5 view .LVU7
  53 000e 03F50333 		add	r3, r3, #134144
  54 0012 DA69     		ldr	r2, [r3, #28]
  55 0014 42F00202 		orr	r2, r2, #2
  56 0018 DA61     		str	r2, [r3, #28]
  57              		.loc 1 93 5 view .LVU8
  58 001a DB69     		ldr	r3, [r3, #28]
  59 001c 03F00203 		and	r3, r3, #2
  60 0020 0193     		str	r3, [sp, #4]
  61              		.loc 1 93 5 view .LVU9
  62 0022 019B     		ldr	r3, [sp, #4]
  63              	.LBE2:
  64              		.loc 1 93 5 view .LVU10
  94:Core/Src/tim.c **** 
  95:Core/Src/tim.c ****     /* TIM3 interrupt Init */
  96:Core/Src/tim.c ****     HAL_NVIC_SetPriority(TIM3_IRQn, 1, 0);
  65              		.loc 1 96 5 view .LVU11
  66 0024 0022     		movs	r2, #0
  67 0026 0121     		movs	r1, #1
  68 0028 1D20     		movs	r0, #29
  69              	.LVL1:
  70              		.loc 1 96 5 is_stmt 0 view .LVU12
  71 002a FFF7FEFF 		bl	HAL_NVIC_SetPriority
  72              	.LVL2:
  97:Core/Src/tim.c ****     HAL_NVIC_EnableIRQ(TIM3_IRQn);
  73              		.loc 1 97 5 is_stmt 1 view .LVU13
  74 002e 1D20     		movs	r0, #29
ARM GAS  C:\Users\15892\AppData\Local\Temp\cc2DzT23.s 			page 4


  75 0030 FFF7FEFF 		bl	HAL_NVIC_EnableIRQ
  76              	.LVL3:
  98:Core/Src/tim.c ****   /* USER CODE BEGIN TIM3_MspInit 1 */
  99:Core/Src/tim.c **** 
 100:Core/Src/tim.c ****   /* USER CODE END TIM3_MspInit 1 */
 101:Core/Src/tim.c ****   }
 102:Core/Src/tim.c **** }
  77              		.loc 1 102 1 is_stmt 0 view .LVU14
  78 0034 03B0     		add	sp, sp, #12
  79              	.LCFI2:
  80              		.cfi_def_cfa_offset 4
  81              		@ sp needed
  82 0036 5DF804FB 		ldr	pc, [sp], #4
  83              	.L9:
  84 003a 00BF     		.align	2
  85              	.L8:
  86 003c 00040040 		.word	1073742848
  87              		.cfi_endproc
  88              	.LFE66:
  90              		.section	.text.HAL_TIM_MspPostInit,"ax",%progbits
  91              		.align	1
  92              		.global	HAL_TIM_MspPostInit
  93              		.syntax unified
  94              		.thumb
  95              		.thumb_func
  97              	HAL_TIM_MspPostInit:
  98              	.LVL4:
  99              	.LFB67:
 103:Core/Src/tim.c **** void HAL_TIM_MspPostInit(TIM_HandleTypeDef* timHandle)
 104:Core/Src/tim.c **** {
 100              		.loc 1 104 1 is_stmt 1 view -0
 101              		.cfi_startproc
 102              		@ args = 0, pretend = 0, frame = 24
 103              		@ frame_needed = 0, uses_anonymous_args = 0
 104              		.loc 1 104 1 is_stmt 0 view .LVU16
 105 0000 00B5     		push	{lr}
 106              	.LCFI3:
 107              		.cfi_def_cfa_offset 4
 108              		.cfi_offset 14, -4
 109 0002 87B0     		sub	sp, sp, #28
 110              	.LCFI4:
 111              		.cfi_def_cfa_offset 32
 105:Core/Src/tim.c **** 
 106:Core/Src/tim.c ****   GPIO_InitTypeDef GPIO_InitStruct = {0};
 112              		.loc 1 106 3 is_stmt 1 view .LVU17
 113              		.loc 1 106 20 is_stmt 0 view .LVU18
 114 0004 0023     		movs	r3, #0
 115 0006 0293     		str	r3, [sp, #8]
 116 0008 0393     		str	r3, [sp, #12]
 117 000a 0493     		str	r3, [sp, #16]
 118 000c 0593     		str	r3, [sp, #20]
 107:Core/Src/tim.c ****   if(timHandle->Instance==TIM3)
 119              		.loc 1 107 3 is_stmt 1 view .LVU19
 120              		.loc 1 107 15 is_stmt 0 view .LVU20
 121 000e 0268     		ldr	r2, [r0]
 122              		.loc 1 107 5 view .LVU21
 123 0010 124B     		ldr	r3, .L14
ARM GAS  C:\Users\15892\AppData\Local\Temp\cc2DzT23.s 			page 5


 124 0012 9A42     		cmp	r2, r3
 125 0014 02D0     		beq	.L13
 126              	.LVL5:
 127              	.L10:
 108:Core/Src/tim.c ****   {
 109:Core/Src/tim.c ****   /* USER CODE BEGIN TIM3_MspPostInit 0 */
 110:Core/Src/tim.c **** 
 111:Core/Src/tim.c ****   /* USER CODE END TIM3_MspPostInit 0 */
 112:Core/Src/tim.c **** 
 113:Core/Src/tim.c ****     __HAL_RCC_GPIOB_CLK_ENABLE();
 114:Core/Src/tim.c ****     /**TIM3 GPIO Configuration
 115:Core/Src/tim.c ****     PB5     ------> TIM3_CH2
 116:Core/Src/tim.c ****     */
 117:Core/Src/tim.c ****     GPIO_InitStruct.Pin = GPIO_PIN_5;
 118:Core/Src/tim.c ****     GPIO_InitStruct.Mode = GPIO_MODE_AF_PP;
 119:Core/Src/tim.c ****     GPIO_InitStruct.Speed = GPIO_SPEED_FREQ_HIGH;
 120:Core/Src/tim.c ****     HAL_GPIO_Init(GPIOB, &GPIO_InitStruct);
 121:Core/Src/tim.c **** 
 122:Core/Src/tim.c ****     __HAL_AFIO_REMAP_TIM3_PARTIAL();
 123:Core/Src/tim.c **** 
 124:Core/Src/tim.c ****   /* USER CODE BEGIN TIM3_MspPostInit 1 */
 125:Core/Src/tim.c **** 
 126:Core/Src/tim.c ****   /* USER CODE END TIM3_MspPostInit 1 */
 127:Core/Src/tim.c ****   }
 128:Core/Src/tim.c **** 
 129:Core/Src/tim.c **** }
 128              		.loc 1 129 1 view .LVU22
 129 0016 07B0     		add	sp, sp, #28
 130              	.LCFI5:
 131              		.cfi_remember_state
 132              		.cfi_def_cfa_offset 4
 133              		@ sp needed
 134 0018 5DF804FB 		ldr	pc, [sp], #4
 135              	.LVL6:
 136              	.L13:
 137              	.LCFI6:
 138              		.cfi_restore_state
 113:Core/Src/tim.c ****     /**TIM3 GPIO Configuration
 139              		.loc 1 113 5 is_stmt 1 view .LVU23
 140              	.LBB3:
 113:Core/Src/tim.c ****     /**TIM3 GPIO Configuration
 141              		.loc 1 113 5 view .LVU24
 113:Core/Src/tim.c ****     /**TIM3 GPIO Configuration
 142              		.loc 1 113 5 view .LVU25
 143 001c 03F50333 		add	r3, r3, #134144
 144 0020 9A69     		ldr	r2, [r3, #24]
 145 0022 42F00802 		orr	r2, r2, #8
 146 0026 9A61     		str	r2, [r3, #24]
 113:Core/Src/tim.c ****     /**TIM3 GPIO Configuration
 147              		.loc 1 113 5 view .LVU26
 148 0028 9B69     		ldr	r3, [r3, #24]
 149 002a 03F00803 		and	r3, r3, #8
 150 002e 0193     		str	r3, [sp, #4]
 113:Core/Src/tim.c ****     /**TIM3 GPIO Configuration
 151              		.loc 1 113 5 view .LVU27
 152 0030 019B     		ldr	r3, [sp, #4]
 153              	.LBE3:
ARM GAS  C:\Users\15892\AppData\Local\Temp\cc2DzT23.s 			page 6


 113:Core/Src/tim.c ****     /**TIM3 GPIO Configuration
 154              		.loc 1 113 5 view .LVU28
 117:Core/Src/tim.c ****     GPIO_InitStruct.Mode = GPIO_MODE_AF_PP;
 155              		.loc 1 117 5 view .LVU29
 117:Core/Src/tim.c ****     GPIO_InitStruct.Mode = GPIO_MODE_AF_PP;
 156              		.loc 1 117 25 is_stmt 0 view .LVU30
 157 0032 2023     		movs	r3, #32
 158 0034 0293     		str	r3, [sp, #8]
 118:Core/Src/tim.c ****     GPIO_InitStruct.Speed = GPIO_SPEED_FREQ_HIGH;
 159              		.loc 1 118 5 is_stmt 1 view .LVU31
 118:Core/Src/tim.c ****     GPIO_InitStruct.Speed = GPIO_SPEED_FREQ_HIGH;
 160              		.loc 1 118 26 is_stmt 0 view .LVU32
 161 0036 0223     		movs	r3, #2
 162 0038 0393     		str	r3, [sp, #12]
 119:Core/Src/tim.c ****     HAL_GPIO_Init(GPIOB, &GPIO_InitStruct);
 163              		.loc 1 119 5 is_stmt 1 view .LVU33
 119:Core/Src/tim.c ****     HAL_GPIO_Init(GPIOB, &GPIO_InitStruct);
 164              		.loc 1 119 27 is_stmt 0 view .LVU34
 165 003a 0323     		movs	r3, #3
 166 003c 0593     		str	r3, [sp, #20]
 120:Core/Src/tim.c **** 
 167              		.loc 1 120 5 is_stmt 1 view .LVU35
 168 003e 02A9     		add	r1, sp, #8
 169 0040 0748     		ldr	r0, .L14+4
 170              	.LVL7:
 120:Core/Src/tim.c **** 
 171              		.loc 1 120 5 is_stmt 0 view .LVU36
 172 0042 FFF7FEFF 		bl	HAL_GPIO_Init
 173              	.LVL8:
 122:Core/Src/tim.c **** 
 174              		.loc 1 122 5 is_stmt 1 view .LVU37
 175              	.LBB4:
 122:Core/Src/tim.c **** 
 176              		.loc 1 122 5 view .LVU38
 177 0046 074A     		ldr	r2, .L14+8
 178 0048 5368     		ldr	r3, [r2, #4]
 179              	.LVL9:
 122:Core/Src/tim.c **** 
 180              		.loc 1 122 5 view .LVU39
 181 004a 23F44063 		bic	r3, r3, #3072
 182              	.LVL10:
 122:Core/Src/tim.c **** 
 183              		.loc 1 122 5 view .LVU40
 122:Core/Src/tim.c **** 
 184              		.loc 1 122 5 view .LVU41
 185 004e 43F0E063 		orr	r3, r3, #117440512
 186              	.LVL11:
 122:Core/Src/tim.c **** 
 187              		.loc 1 122 5 is_stmt 0 view .LVU42
 188 0052 43F40063 		orr	r3, r3, #2048
 189              	.LVL12:
 122:Core/Src/tim.c **** 
 190              		.loc 1 122 5 is_stmt 1 view .LVU43
 191 0056 5360     		str	r3, [r2, #4]
 192              	.LBE4:
 122:Core/Src/tim.c **** 
 193              		.loc 1 122 5 view .LVU44
ARM GAS  C:\Users\15892\AppData\Local\Temp\cc2DzT23.s 			page 7


 194              		.loc 1 129 1 is_stmt 0 view .LVU45
 195 0058 DDE7     		b	.L10
 196              	.L15:
 197 005a 00BF     		.align	2
 198              	.L14:
 199 005c 00040040 		.word	1073742848
 200 0060 000C0140 		.word	1073810432
 201 0064 00000140 		.word	1073807360
 202              		.cfi_endproc
 203              	.LFE67:
 205              		.section	.text.MX_TIM3_Init,"ax",%progbits
 206              		.align	1
 207              		.global	MX_TIM3_Init
 208              		.syntax unified
 209              		.thumb
 210              		.thumb_func
 212              	MX_TIM3_Init:
 213              	.LFB65:
  31:Core/Src/tim.c **** 
 214              		.loc 1 31 1 is_stmt 1 view -0
 215              		.cfi_startproc
 216              		@ args = 0, pretend = 0, frame = 56
 217              		@ frame_needed = 0, uses_anonymous_args = 0
 218 0000 00B5     		push	{lr}
 219              	.LCFI7:
 220              		.cfi_def_cfa_offset 4
 221              		.cfi_offset 14, -4
 222 0002 8FB0     		sub	sp, sp, #60
 223              	.LCFI8:
 224              		.cfi_def_cfa_offset 64
  37:Core/Src/tim.c ****   TIM_MasterConfigTypeDef sMasterConfig = {0};
 225              		.loc 1 37 3 view .LVU47
  37:Core/Src/tim.c ****   TIM_MasterConfigTypeDef sMasterConfig = {0};
 226              		.loc 1 37 26 is_stmt 0 view .LVU48
 227 0004 0023     		movs	r3, #0
 228 0006 0A93     		str	r3, [sp, #40]
 229 0008 0B93     		str	r3, [sp, #44]
 230 000a 0C93     		str	r3, [sp, #48]
 231 000c 0D93     		str	r3, [sp, #52]
  38:Core/Src/tim.c ****   TIM_OC_InitTypeDef sConfigOC = {0};
 232              		.loc 1 38 3 is_stmt 1 view .LVU49
  38:Core/Src/tim.c ****   TIM_OC_InitTypeDef sConfigOC = {0};
 233              		.loc 1 38 27 is_stmt 0 view .LVU50
 234 000e 0893     		str	r3, [sp, #32]
 235 0010 0993     		str	r3, [sp, #36]
  39:Core/Src/tim.c **** 
 236              		.loc 1 39 3 is_stmt 1 view .LVU51
  39:Core/Src/tim.c **** 
 237              		.loc 1 39 22 is_stmt 0 view .LVU52
 238 0012 0193     		str	r3, [sp, #4]
 239 0014 0293     		str	r3, [sp, #8]
 240 0016 0393     		str	r3, [sp, #12]
 241 0018 0493     		str	r3, [sp, #16]
 242 001a 0593     		str	r3, [sp, #20]
 243 001c 0693     		str	r3, [sp, #24]
 244 001e 0793     		str	r3, [sp, #28]
  44:Core/Src/tim.c ****   htim3.Init.Prescaler = 71;
ARM GAS  C:\Users\15892\AppData\Local\Temp\cc2DzT23.s 			page 8


 245              		.loc 1 44 3 is_stmt 1 view .LVU53
  44:Core/Src/tim.c ****   htim3.Init.Prescaler = 71;
 246              		.loc 1 44 18 is_stmt 0 view .LVU54
 247 0020 2248     		ldr	r0, .L28
 248 0022 234A     		ldr	r2, .L28+4
 249 0024 0260     		str	r2, [r0]
  45:Core/Src/tim.c ****   htim3.Init.CounterMode = TIM_COUNTERMODE_UP;
 250              		.loc 1 45 3 is_stmt 1 view .LVU55
  45:Core/Src/tim.c ****   htim3.Init.CounterMode = TIM_COUNTERMODE_UP;
 251              		.loc 1 45 24 is_stmt 0 view .LVU56
 252 0026 4722     		movs	r2, #71
 253 0028 4260     		str	r2, [r0, #4]
  46:Core/Src/tim.c ****   htim3.Init.Period = 499;
 254              		.loc 1 46 3 is_stmt 1 view .LVU57
  46:Core/Src/tim.c ****   htim3.Init.Period = 499;
 255              		.loc 1 46 26 is_stmt 0 view .LVU58
 256 002a 8360     		str	r3, [r0, #8]
  47:Core/Src/tim.c ****   htim3.Init.ClockDivision = TIM_CLOCKDIVISION_DIV1;
 257              		.loc 1 47 3 is_stmt 1 view .LVU59
  47:Core/Src/tim.c ****   htim3.Init.ClockDivision = TIM_CLOCKDIVISION_DIV1;
 258              		.loc 1 47 21 is_stmt 0 view .LVU60
 259 002c 40F2F312 		movw	r2, #499
 260 0030 C260     		str	r2, [r0, #12]
  48:Core/Src/tim.c ****   htim3.Init.AutoReloadPreload = TIM_AUTORELOAD_PRELOAD_ENABLE;
 261              		.loc 1 48 3 is_stmt 1 view .LVU61
  48:Core/Src/tim.c ****   htim3.Init.AutoReloadPreload = TIM_AUTORELOAD_PRELOAD_ENABLE;
 262              		.loc 1 48 28 is_stmt 0 view .LVU62
 263 0032 0361     		str	r3, [r0, #16]
  49:Core/Src/tim.c ****   if (HAL_TIM_Base_Init(&htim3) != HAL_OK)
 264              		.loc 1 49 3 is_stmt 1 view .LVU63
  49:Core/Src/tim.c ****   if (HAL_TIM_Base_Init(&htim3) != HAL_OK)
 265              		.loc 1 49 32 is_stmt 0 view .LVU64
 266 0034 8023     		movs	r3, #128
 267 0036 8361     		str	r3, [r0, #24]
  50:Core/Src/tim.c ****   {
 268              		.loc 1 50 3 is_stmt 1 view .LVU65
  50:Core/Src/tim.c ****   {
 269              		.loc 1 50 7 is_stmt 0 view .LVU66
 270 0038 FFF7FEFF 		bl	HAL_TIM_Base_Init
 271              	.LVL13:
  50:Core/Src/tim.c ****   {
 272              		.loc 1 50 6 view .LVU67
 273 003c 38BB     		cbnz	r0, .L23
 274              	.L17:
  54:Core/Src/tim.c ****   if (HAL_TIM_ConfigClockSource(&htim3, &sClockSourceConfig) != HAL_OK)
 275              		.loc 1 54 3 is_stmt 1 view .LVU68
  54:Core/Src/tim.c ****   if (HAL_TIM_ConfigClockSource(&htim3, &sClockSourceConfig) != HAL_OK)
 276              		.loc 1 54 34 is_stmt 0 view .LVU69
 277 003e 4FF48053 		mov	r3, #4096
 278 0042 0A93     		str	r3, [sp, #40]
  55:Core/Src/tim.c ****   {
 279              		.loc 1 55 3 is_stmt 1 view .LVU70
  55:Core/Src/tim.c ****   {
 280              		.loc 1 55 7 is_stmt 0 view .LVU71
 281 0044 0AA9     		add	r1, sp, #40
 282 0046 1948     		ldr	r0, .L28
 283 0048 FFF7FEFF 		bl	HAL_TIM_ConfigClockSource
ARM GAS  C:\Users\15892\AppData\Local\Temp\cc2DzT23.s 			page 9


 284              	.LVL14:
  55:Core/Src/tim.c ****   {
 285              		.loc 1 55 6 view .LVU72
 286 004c 10BB     		cbnz	r0, .L24
 287              	.L18:
  59:Core/Src/tim.c ****   {
 288              		.loc 1 59 3 is_stmt 1 view .LVU73
  59:Core/Src/tim.c ****   {
 289              		.loc 1 59 7 is_stmt 0 view .LVU74
 290 004e 1748     		ldr	r0, .L28
 291 0050 FFF7FEFF 		bl	HAL_TIM_PWM_Init
 292              	.LVL15:
  59:Core/Src/tim.c ****   {
 293              		.loc 1 59 6 view .LVU75
 294 0054 08BB     		cbnz	r0, .L25
 295              	.L19:
  63:Core/Src/tim.c ****   sMasterConfig.MasterSlaveMode = TIM_MASTERSLAVEMODE_DISABLE;
 296              		.loc 1 63 3 is_stmt 1 view .LVU76
  63:Core/Src/tim.c ****   sMasterConfig.MasterSlaveMode = TIM_MASTERSLAVEMODE_DISABLE;
 297              		.loc 1 63 37 is_stmt 0 view .LVU77
 298 0056 0023     		movs	r3, #0
 299 0058 0893     		str	r3, [sp, #32]
  64:Core/Src/tim.c ****   if (HAL_TIMEx_MasterConfigSynchronization(&htim3, &sMasterConfig) != HAL_OK)
 300              		.loc 1 64 3 is_stmt 1 view .LVU78
  64:Core/Src/tim.c ****   if (HAL_TIMEx_MasterConfigSynchronization(&htim3, &sMasterConfig) != HAL_OK)
 301              		.loc 1 64 33 is_stmt 0 view .LVU79
 302 005a 0993     		str	r3, [sp, #36]
  65:Core/Src/tim.c ****   {
 303              		.loc 1 65 3 is_stmt 1 view .LVU80
  65:Core/Src/tim.c ****   {
 304              		.loc 1 65 7 is_stmt 0 view .LVU81
 305 005c 08A9     		add	r1, sp, #32
 306 005e 1348     		ldr	r0, .L28
 307 0060 FFF7FEFF 		bl	HAL_TIMEx_MasterConfigSynchronization
 308              	.LVL16:
  65:Core/Src/tim.c ****   {
 309              		.loc 1 65 6 view .LVU82
 310 0064 E0B9     		cbnz	r0, .L26
 311              	.L20:
  69:Core/Src/tim.c ****   sConfigOC.Pulse = 249;
 312              		.loc 1 69 3 is_stmt 1 view .LVU83
  69:Core/Src/tim.c ****   sConfigOC.Pulse = 249;
 313              		.loc 1 69 20 is_stmt 0 view .LVU84
 314 0066 6023     		movs	r3, #96
 315 0068 0193     		str	r3, [sp, #4]
  70:Core/Src/tim.c ****   sConfigOC.OCPolarity = TIM_OCPOLARITY_HIGH;
 316              		.loc 1 70 3 is_stmt 1 view .LVU85
  70:Core/Src/tim.c ****   sConfigOC.OCPolarity = TIM_OCPOLARITY_HIGH;
 317              		.loc 1 70 19 is_stmt 0 view .LVU86
 318 006a F923     		movs	r3, #249
 319 006c 0293     		str	r3, [sp, #8]
  71:Core/Src/tim.c ****   sConfigOC.OCFastMode = TIM_OCFAST_DISABLE;
 320              		.loc 1 71 3 is_stmt 1 view .LVU87
  71:Core/Src/tim.c ****   sConfigOC.OCFastMode = TIM_OCFAST_DISABLE;
 321              		.loc 1 71 24 is_stmt 0 view .LVU88
 322 006e 0023     		movs	r3, #0
 323 0070 0393     		str	r3, [sp, #12]
ARM GAS  C:\Users\15892\AppData\Local\Temp\cc2DzT23.s 			page 10


  72:Core/Src/tim.c ****   if (HAL_TIM_PWM_ConfigChannel(&htim3, &sConfigOC, TIM_CHANNEL_2) != HAL_OK)
 324              		.loc 1 72 3 is_stmt 1 view .LVU89
  72:Core/Src/tim.c ****   if (HAL_TIM_PWM_ConfigChannel(&htim3, &sConfigOC, TIM_CHANNEL_2) != HAL_OK)
 325              		.loc 1 72 24 is_stmt 0 view .LVU90
 326 0072 0593     		str	r3, [sp, #20]
  73:Core/Src/tim.c ****   {
 327              		.loc 1 73 3 is_stmt 1 view .LVU91
  73:Core/Src/tim.c ****   {
 328              		.loc 1 73 7 is_stmt 0 view .LVU92
 329 0074 0422     		movs	r2, #4
 330 0076 0DEB0201 		add	r1, sp, r2
 331 007a 0C48     		ldr	r0, .L28
 332 007c FFF7FEFF 		bl	HAL_TIM_PWM_ConfigChannel
 333              	.LVL17:
  73:Core/Src/tim.c ****   {
 334              		.loc 1 73 6 view .LVU93
 335 0080 88B9     		cbnz	r0, .L27
 336              	.L21:
  80:Core/Src/tim.c **** 
 337              		.loc 1 80 3 is_stmt 1 view .LVU94
 338 0082 0A48     		ldr	r0, .L28
 339 0084 FFF7FEFF 		bl	HAL_TIM_MspPostInit
 340              	.LVL18:
  82:Core/Src/tim.c **** 
 341              		.loc 1 82 1 is_stmt 0 view .LVU95
 342 0088 0FB0     		add	sp, sp, #60
 343              	.LCFI9:
 344              		.cfi_remember_state
 345              		.cfi_def_cfa_offset 4
 346              		@ sp needed
 347 008a 5DF804FB 		ldr	pc, [sp], #4
 348              	.L23:
 349              	.LCFI10:
 350              		.cfi_restore_state
  52:Core/Src/tim.c ****   }
 351              		.loc 1 52 5 is_stmt 1 view .LVU96
 352 008e FFF7FEFF 		bl	Error_Handler
 353              	.LVL19:
 354 0092 D4E7     		b	.L17
 355              	.L24:
  57:Core/Src/tim.c ****   }
 356              		.loc 1 57 5 view .LVU97
 357 0094 FFF7FEFF 		bl	Error_Handler
 358              	.LVL20:
 359 0098 D9E7     		b	.L18
 360              	.L25:
  61:Core/Src/tim.c ****   }
 361              		.loc 1 61 5 view .LVU98
 362 009a FFF7FEFF 		bl	Error_Handler
 363              	.LVL21:
 364 009e DAE7     		b	.L19
 365              	.L26:
  67:Core/Src/tim.c ****   }
 366              		.loc 1 67 5 view .LVU99
 367 00a0 FFF7FEFF 		bl	Error_Handler
 368              	.LVL22:
 369 00a4 DFE7     		b	.L20
ARM GAS  C:\Users\15892\AppData\Local\Temp\cc2DzT23.s 			page 11


 370              	.L27:
  75:Core/Src/tim.c ****   }
 371              		.loc 1 75 5 view .LVU100
 372 00a6 FFF7FEFF 		bl	Error_Handler
 373              	.LVL23:
 374 00aa EAE7     		b	.L21
 375              	.L29:
 376              		.align	2
 377              	.L28:
 378 00ac 00000000 		.word	.LANCHOR0
 379 00b0 00040040 		.word	1073742848
 380              		.cfi_endproc
 381              	.LFE65:
 383              		.section	.text.HAL_TIM_Base_MspDeInit,"ax",%progbits
 384              		.align	1
 385              		.global	HAL_TIM_Base_MspDeInit
 386              		.syntax unified
 387              		.thumb
 388              		.thumb_func
 390              	HAL_TIM_Base_MspDeInit:
 391              	.LVL24:
 392              	.LFB68:
 130:Core/Src/tim.c **** 
 131:Core/Src/tim.c **** void HAL_TIM_Base_MspDeInit(TIM_HandleTypeDef* tim_baseHandle)
 132:Core/Src/tim.c **** {
 393              		.loc 1 132 1 view -0
 394              		.cfi_startproc
 395              		@ args = 0, pretend = 0, frame = 0
 396              		@ frame_needed = 0, uses_anonymous_args = 0
 397              		.loc 1 132 1 is_stmt 0 view .LVU102
 398 0000 08B5     		push	{r3, lr}
 399              	.LCFI11:
 400              		.cfi_def_cfa_offset 8
 401              		.cfi_offset 3, -8
 402              		.cfi_offset 14, -4
 133:Core/Src/tim.c **** 
 134:Core/Src/tim.c ****   if(tim_baseHandle->Instance==TIM3)
 403              		.loc 1 134 3 is_stmt 1 view .LVU103
 404              		.loc 1 134 20 is_stmt 0 view .LVU104
 405 0002 0268     		ldr	r2, [r0]
 406              		.loc 1 134 5 view .LVU105
 407 0004 064B     		ldr	r3, .L34
 408 0006 9A42     		cmp	r2, r3
 409 0008 00D0     		beq	.L33
 410              	.LVL25:
 411              	.L30:
 135:Core/Src/tim.c ****   {
 136:Core/Src/tim.c ****   /* USER CODE BEGIN TIM3_MspDeInit 0 */
 137:Core/Src/tim.c **** 
 138:Core/Src/tim.c ****   /* USER CODE END TIM3_MspDeInit 0 */
 139:Core/Src/tim.c ****     /* Peripheral clock disable */
 140:Core/Src/tim.c ****     __HAL_RCC_TIM3_CLK_DISABLE();
 141:Core/Src/tim.c **** 
 142:Core/Src/tim.c ****     /* TIM3 interrupt Deinit */
 143:Core/Src/tim.c ****     HAL_NVIC_DisableIRQ(TIM3_IRQn);
 144:Core/Src/tim.c ****   /* USER CODE BEGIN TIM3_MspDeInit 1 */
 145:Core/Src/tim.c **** 
ARM GAS  C:\Users\15892\AppData\Local\Temp\cc2DzT23.s 			page 12


 146:Core/Src/tim.c ****   /* USER CODE END TIM3_MspDeInit 1 */
 147:Core/Src/tim.c ****   }
 148:Core/Src/tim.c **** }
 412              		.loc 1 148 1 view .LVU106
 413 000a 08BD     		pop	{r3, pc}
 414              	.LVL26:
 415              	.L33:
 140:Core/Src/tim.c **** 
 416              		.loc 1 140 5 is_stmt 1 view .LVU107
 417 000c 054A     		ldr	r2, .L34+4
 418 000e D369     		ldr	r3, [r2, #28]
 419 0010 23F00203 		bic	r3, r3, #2
 420 0014 D361     		str	r3, [r2, #28]
 143:Core/Src/tim.c ****   /* USER CODE BEGIN TIM3_MspDeInit 1 */
 421              		.loc 1 143 5 view .LVU108
 422 0016 1D20     		movs	r0, #29
 423              	.LVL27:
 143:Core/Src/tim.c ****   /* USER CODE BEGIN TIM3_MspDeInit 1 */
 424              		.loc 1 143 5 is_stmt 0 view .LVU109
 425 0018 FFF7FEFF 		bl	HAL_NVIC_DisableIRQ
 426              	.LVL28:
 427              		.loc 1 148 1 view .LVU110
 428 001c F5E7     		b	.L30
 429              	.L35:
 430 001e 00BF     		.align	2
 431              	.L34:
 432 0020 00040040 		.word	1073742848
 433 0024 00100240 		.word	1073876992
 434              		.cfi_endproc
 435              	.LFE68:
 437              		.global	htim3
 438              		.section	.bss.htim3,"aw",%nobits
 439              		.align	2
 440              		.set	.LANCHOR0,. + 0
 443              	htim3:
 444 0000 00000000 		.space	72
 444      00000000 
 444      00000000 
 444      00000000 
 444      00000000 
 445              		.text
 446              	.Letext0:
 447              		.file 2 "c:\\env\\tools\\gnu_gcc\\arm_gcc\\mingw\\arm-none-eabi\\include\\machine\\_default_types.
 448              		.file 3 "c:\\env\\tools\\gnu_gcc\\arm_gcc\\mingw\\arm-none-eabi\\include\\sys\\_stdint.h"
 449              		.file 4 "Drivers/CMSIS/Device/ST/STM32F1xx/Include/stm32f103xe.h"
 450              		.file 5 "Drivers/STM32F1xx_HAL_Driver/Inc/stm32f1xx_hal_def.h"
 451              		.file 6 "Drivers/STM32F1xx_HAL_Driver/Inc/stm32f1xx_hal_gpio.h"
 452              		.file 7 "Drivers/STM32F1xx_HAL_Driver/Inc/stm32f1xx_hal_dma.h"
 453              		.file 8 "Drivers/STM32F1xx_HAL_Driver/Inc/stm32f1xx_hal_tim.h"
 454              		.file 9 "Core/Inc/tim.h"
 455              		.file 10 "Drivers/STM32F1xx_HAL_Driver/Inc/stm32f1xx_hal_cortex.h"
 456              		.file 11 "Drivers/STM32F1xx_HAL_Driver/Inc/stm32f1xx_hal_tim_ex.h"
 457              		.file 12 "Core/Inc/main.h"
ARM GAS  C:\Users\15892\AppData\Local\Temp\cc2DzT23.s 			page 13

